; Function Attrs: nounwind uwtable
define void @Cec_ManPatCleanMark0(ptr noundef %0, ptr noundef %1) local_unnamed_addr #0 {
  tail call void @Gia_ManIncrementTravId(ptr noundef %0) #18
  %3 = load i64, ptr %1, align 4
  %4 = and i64 %3, 536870911
  %5 = sub nsw i64 0, %4
  %6 = getelementptr inbounds %struct.Gia_Obj_t_, ptr %1, i64 %5
  tail call void @Cec_ManPatComputePattern4_rec(ptr noundef %0, ptr noundef nonnull %6)
  ret void
}